; ModuleID = '56/1842.c'
source_filename = "56/1842.c"
target datalayout = "e-m:e-p270:32:32-p271:32:32-p272:64:64-i64:64-f80:128-n8:16:32:64-S128"
target triple = "x86_64-pc-linux-gnu"

@.str = private unnamed_addr constant [3 x i8] c"%d\00", align 1
@.str.1 = private unnamed_addr constant [12 x i8] c"%d%d%d%d%d\0A\00", align 1
@.str.2 = private unnamed_addr constant [8 x i8] c"%d%d%d\0A\00", align 1
@.str.3 = private unnamed_addr constant [10 x i8] c"%d%d%d%d\0A\00", align 1

; Function Attrs: noinline nounwind uwtable
define dso_local void @main() #0 {
  %1 = alloca i32, align 4
  %2 = alloca i32, align 4
  %3 = alloca i32, align 4
  %4 = alloca i32, align 4
  %5 = alloca i32, align 4
  %6 = alloca i32, align 4
  %7 = call i32 (i8*, ...) @__isoc99_scanf(i8* getelementptr inbounds ([3 x i8], [3 x i8]* @.str, i64 0, i64 0), i32* %1)
  %8 = load i32, i32* %1, align 4
  %9 = sdiv i32 %8, 10000
  store i32 %9, i32* %2, align 4
  %10 = load i32, i32* %1, align 4
  %11 = load i32, i32* %2, align 4
  %12 = mul nsw i32 %11, 10000
  %13 = sub nsw i32 %10, %12
  %14 = sdiv i32 %13, 1000
  store i32 %14, i32* %3, align 4
  %15 = load i32, i32* %1, align 4
  %16 = load i32, i32* %2, align 4
  %17 = mul nsw i32 %16, 10000
  %18 = sub nsw i32 %15, %17
  %19 = load i32, i32* %3, align 4
  %20 = mul nsw i32 %19, 1000
  %21 = sub nsw i32 %18, %20
  %22 = sdiv i32 %21, 100
  store i32 %22, i32* %4, align 4
  %23 = load i32, i32* %1, align 4
  %24 = load i32, i32* %2, align 4
  %25 = mul nsw i32 %24, 10000
  %26 = sub nsw i32 %23, %25
  %27 = load i32, i32* %3, align 4
  %28 = mul nsw i32 %27, 1000
  %29 = sub nsw i32 %26, %28
  %30 = load i32, i32* %4, align 4
  %31 = mul nsw i32 %30, 100
  %32 = sub nsw i32 %29, %31
  %33 = sdiv i32 %32, 10
  store i32 %33, i32* %5, align 4
  %34 = load i32, i32* %1, align 4
  %35 = load i32, i32* %2, align 4
  %36 = mul nsw i32 %35, 10000
  %37 = sub nsw i32 %34, %36
  %38 = load i32, i32* %3, align 4
  %39 = mul nsw i32 %38, 1000
  %40 = sub nsw i32 %37, %39
  %41 = load i32, i32* %4, align 4
  %42 = mul nsw i32 %41, 100
  %43 = sub nsw i32 %40, %42
  %44 = load i32, i32* %5, align 4
  %45 = mul nsw i32 %44, 10
  %46 = sub nsw i32 %43, %45
  %47 = sdiv i32 %46, 1
  store i32 %47, i32* %6, align 4
  %48 = load i32, i32* %2, align 4
  %49 = icmp ne i32 %48, 0
  br i1 %49, label %50, label %57

50:                                               ; preds = %0
  %51 = load i32, i32* %6, align 4
  %52 = load i32, i32* %5, align 4
  %53 = load i32, i32* %4, align 4
  %54 = load i32, i32* %3, align 4
  %55 = load i32, i32* %2, align 4
  %56 = call i32 (i8*, ...) @printf(i8* getelementptr inbounds ([12 x i8], [12 x i8]* @.str.1, i64 0, i64 0), i32 %51, i32 %52, i32 %53, i32 %54, i32 %55)
  br label %72

57:                                               ; preds = %0
  %58 = load i32, i32* %3, align 4
  %59 = icmp eq i32 %58, 0
  br i1 %59, label %60, label %65

60:                                               ; preds = %57
  %61 = load i32, i32* %6, align 4
  %62 = load i32, i32* %5, align 4
  %63 = load i32, i32* %4, align 4
  %64 = call i32 (i8*, ...) @printf(i8* getelementptr inbounds ([8 x i8], [8 x i8]* @.str.2, i64 0, i64 0), i32 %61, i32 %62, i32 %63)
  br label %71

65:                                               ; preds = %57
  %66 = load i32, i32* %6, align 4
  %67 = load i32, i32* %5, align 4
  %68 = load i32, i32* %4, align 4
  %69 = load i32, i32* %3, align 4
  %70 = call i32 (i8*, ...) @printf(i8* getelementptr inbounds ([10 x i8], [10 x i8]* @.str.3, i64 0, i64 0), i32 %66, i32 %67, i32 %68, i32 %69)
  br label %71

71:                                               ; preds = %65, %60
  br label %72

72:                                               ; preds = %71, %50
  ret void
}

declare dso_local i32 @__isoc99_scanf(i8*, ...) #1

declare dso_local i32 @printf(i8*, ...) #1


!llvm.module.flags = !{!0}
!llvm.ident = !{!1}

!0 = !{i32 1, !"wchar_size", i32 4}
!1 = !{!"clang version 10.0.0-4ubuntu1 "}
